#include <math.h>
#include <stdio.h>
#include <stdlib.h>
#include <string.h>

int main(){
	int i,b,s=0,j,a;
	double r,R;
	char gene[500],gene2[500];
	scanf("%lf",&r);
	scanf("%s",gene);
	scanf("%s",gene2);
	b=strlen(gene2);
	a=strlen(gene);
	if(a!=b){
			printf("error");
			return 0;
		}
	for(i=0;i<a;i++){
		if(gene[i]!='A'&&gene[i]!='T'&&gene[i]!='C'&&gene[i]!='G'){
			printf("error");
			return 0;
		}
		if(gene2[i]!='A'&&gene2[i]!='T'&&gene2[i]!='C'&&gene2[i]!='G'){
			printf("error");
			return 0;
		}
	}
	for(i=1;i<=b;i++){
		if(gene[i]==gene2[i]){
			s++;
		}
	}
	R=1.000*s/b;
	if(R>r){
		printf("yes");
	}
	else if(R<=r) {
		printf("no");
	}

	return 0;
}
