; ModuleID = '5/455.c'
source_filename = "5/455.c"
target datalayout = "e-m:e-p270:32:32-p271:32:32-p272:64:64-i64:64-f80:128-n8:16:32:64-S128"
target triple = "x86_64-pc-linux-gnu"

@.str = private unnamed_addr constant [4 x i8] c"%lf\00", align 1
@.str.1 = private unnamed_addr constant [3 x i8] c"%s\00", align 1
@.str.2 = private unnamed_addr constant [6 x i8] c"error\00", align 1
@.str.3 = private unnamed_addr constant [4 x i8] c"yes\00", align 1
@.str.4 = private unnamed_addr constant [3 x i8] c"no\00", align 1

; Function Attrs: noinline nounwind uwtable
define dso_local i32 @main() #0 {
  %1 = alloca i32, align 4
  %2 = alloca i32, align 4
  %3 = alloca i32, align 4
  %4 = alloca i32, align 4
  %5 = alloca i32, align 4
  %6 = alloca i32, align 4
  %7 = alloca double, align 8
  %8 = alloca double, align 8
  %9 = alloca [500 x i8], align 16
  %10 = alloca [500 x i8], align 16
  store i32 0, i32* %1, align 4
  store i32 0, i32* %4, align 4
  %11 = call i32 (i8*, ...) @__isoc99_scanf(i8* getelementptr inbounds ([4 x i8], [4 x i8]* @.str, i64 0, i64 0), double* %7)
  %12 = getelementptr inbounds [500 x i8], [500 x i8]* %9, i64 0, i64 0
  %13 = call i32 (i8*, ...) @__isoc99_scanf(i8* getelementptr inbounds ([3 x i8], [3 x i8]* @.str.1, i64 0, i64 0), i8* %12)
  %14 = getelementptr inbounds [500 x i8], [500 x i8]* %10, i64 0, i64 0
  %15 = call i32 (i8*, ...) @__isoc99_scanf(i8* getelementptr inbounds ([3 x i8], [3 x i8]* @.str.1, i64 0, i64 0), i8* %14)
  %16 = getelementptr inbounds [500 x i8], [500 x i8]* %10, i64 0, i64 0
  %17 = call i64 @strlen(i8* %16) #3
  %18 = trunc i64 %17 to i32
  store i32 %18, i32* %3, align 4
  %19 = getelementptr inbounds [500 x i8], [500 x i8]* %9, i64 0, i64 0
  %20 = call i64 @strlen(i8* %19) #3
  %21 = trunc i64 %20 to i32
  store i32 %21, i32* %6, align 4
  %22 = load i32, i32* %6, align 4
  %23 = load i32, i32* %3, align 4
  %24 = icmp ne i32 %22, %23
  br i1 %24, label %25, label %27

25:                                               ; preds = %0
  %26 = call i32 (i8*, ...) @printf(i8* getelementptr inbounds ([6 x i8], [6 x i8]* @.str.2, i64 0, i64 0))
  store i32 0, i32* %1, align 4
  br label %140

27:                                               ; preds = %0
  store i32 0, i32* %2, align 4
  br label %28

28:                                               ; preds = %93, %27
  %29 = load i32, i32* %2, align 4
  %30 = load i32, i32* %6, align 4
  %31 = icmp slt i32 %29, %30
  br i1 %31, label %32, label %96

32:                                               ; preds = %28
  %33 = load i32, i32* %2, align 4
  %34 = sext i32 %33 to i64
  %35 = getelementptr inbounds [500 x i8], [500 x i8]* %9, i64 0, i64 %34
  %36 = load i8, i8* %35, align 1
  %37 = sext i8 %36 to i32
  %38 = icmp ne i32 %37, 65
  br i1 %38, label %39, label %62

39:                                               ; preds = %32
  %40 = load i32, i32* %2, align 4
  %41 = sext i32 %40 to i64
  %42 = getelementptr inbounds [500 x i8], [500 x i8]* %9, i64 0, i64 %41
  %43 = load i8, i8* %42, align 1
  %44 = sext i8 %43 to i32
  %45 = icmp ne i32 %44, 84
  br i1 %45, label %46, label %62

46:                                               ; preds = %39
  %47 = load i32, i32* %2, align 4
  %48 = sext i32 %47 to i64
  %49 = getelementptr inbounds [500 x i8], [500 x i8]* %9, i64 0, i64 %48
  %50 = load i8, i8* %49, align 1
  %51 = sext i8 %50 to i32
  %52 = icmp ne i32 %51, 67
  br i1 %52, label %53, label %62

53:                                               ; preds = %46
  %54 = load i32, i32* %2, align 4
  %55 = sext i32 %54 to i64
  %56 = getelementptr inbounds [500 x i8], [500 x i8]* %9, i64 0, i64 %55
  %57 = load i8, i8* %56, align 1
  %58 = sext i8 %57 to i32
  %59 = icmp ne i32 %58, 71
  br i1 %59, label %60, label %62

60:                                               ; preds = %53
  %61 = call i32 (i8*, ...) @printf(i8* getelementptr inbounds ([6 x i8], [6 x i8]* @.str.2, i64 0, i64 0))
  store i32 0, i32* %1, align 4
  br label %140

62:                                               ; preds = %53, %46, %39, %32
  %63 = load i32, i32* %2, align 4
  %64 = sext i32 %63 to i64
  %65 = getelementptr inbounds [500 x i8], [500 x i8]* %10, i64 0, i64 %64
  %66 = load i8, i8* %65, align 1
  %67 = sext i8 %66 to i32
  %68 = icmp ne i32 %67, 65
  br i1 %68, label %69, label %92

69:                                               ; preds = %62
  %70 = load i32, i32* %2, align 4
  %71 = sext i32 %70 to i64
  %72 = getelementptr inbounds [500 x i8], [500 x i8]* %10, i64 0, i64 %71
  %73 = load i8, i8* %72, align 1
  %74 = sext i8 %73 to i32
  %75 = icmp ne i32 %74, 84
  br i1 %75, label %76, label %92

76:                                               ; preds = %69
  %77 = load i32, i32* %2, align 4
  %78 = sext i32 %77 to i64
  %79 = getelementptr inbounds [500 x i8], [500 x i8]* %10, i64 0, i64 %78
  %80 = load i8, i8* %79, align 1
  %81 = sext i8 %80 to i32
  %82 = icmp ne i32 %81, 67
  br i1 %82, label %83, label %92

83:                                               ; preds = %76
  %84 = load i32, i32* %2, align 4
  %85 = sext i32 %84 to i64
  %86 = getelementptr inbounds [500 x i8], [500 x i8]* %10, i64 0, i64 %85
  %87 = load i8, i8* %86, align 1
  %88 = sext i8 %87 to i32
  %89 = icmp ne i32 %88, 71
  br i1 %89, label %90, label %92

90:                                               ; preds = %83
  %91 = call i32 (i8*, ...) @printf(i8* getelementptr inbounds ([6 x i8], [6 x i8]* @.str.2, i64 0, i64 0))
  store i32 0, i32* %1, align 4
  br label %140

92:                                               ; preds = %83, %76, %69, %62
  br label %93

93:                                               ; preds = %92
  %94 = load i32, i32* %2, align 4
  %95 = add nsw i32 %94, 1
  store i32 %95, i32* %2, align 4
  br label %28

96:                                               ; preds = %28
  store i32 1, i32* %2, align 4
  br label %97

97:                                               ; preds = %117, %96
  %98 = load i32, i32* %2, align 4
  %99 = load i32, i32* %3, align 4
  %100 = icmp sle i32 %98, %99
  br i1 %100, label %101, label %120

101:                                              ; preds = %97
  %102 = load i32, i32* %2, align 4
  %103 = sext i32 %102 to i64
  %104 = getelementptr inbounds [500 x i8], [500 x i8]* %9, i64 0, i64 %103
  %105 = load i8, i8* %104, align 1
  %106 = sext i8 %105 to i32
  %107 = load i32, i32* %2, align 4
  %108 = sext i32 %107 to i64
  %109 = getelementptr inbounds [500 x i8], [500 x i8]* %10, i64 0, i64 %108
  %110 = load i8, i8* %109, align 1
  %111 = sext i8 %110 to i32
  %112 = icmp eq i32 %106, %111
  br i1 %112, label %113, label %116

113:                                              ; preds = %101
  %114 = load i32, i32* %4, align 4
  %115 = add nsw i32 %114, 1
  store i32 %115, i32* %4, align 4
  br label %116

116:                                              ; preds = %113, %101
  br label %117

117:                                              ; preds = %116
  %118 = load i32, i32* %2, align 4
  %119 = add nsw i32 %118, 1
  store i32 %119, i32* %2, align 4
  br label %97

120:                                              ; preds = %97
  %121 = load i32, i32* %4, align 4
  %122 = sitofp i32 %121 to double
  %123 = fmul double 1.000000e+00, %122
  %124 = load i32, i32* %3, align 4
  %125 = sitofp i32 %124 to double
  %126 = fdiv double %123, %125
  store double %126, double* %8, align 8
  %127 = load double, double* %8, align 8
  %128 = load double, double* %7, align 8
  %129 = fcmp ogt double %127, %128
  br i1 %129, label %130, label %132

130:                                              ; preds = %120
  %131 = call i32 (i8*, ...) @printf(i8* getelementptr inbounds ([4 x i8], [4 x i8]* @.str.3, i64 0, i64 0))
  br label %139

132:                                              ; preds = %120
  %133 = load double, double* %8, align 8
  %134 = load double, double* %7, align 8
  %135 = fcmp ole double %133, %134
  br i1 %135, label %136, label %138

136:                                              ; preds = %132
  %137 = call i32 (i8*, ...) @printf(i8* getelementptr inbounds ([3 x i8], [3 x i8]* @.str.4, i64 0, i64 0))
  br label %138

138:                                              ; preds = %136, %132
  br label %139

139:                                              ; preds = %138, %130
  store i32 0, i32* %1, align 4
  br label %140

140:                                              ; preds = %139, %90, %60, %25
  %141 = load i32, i32* %1, align 4
  ret i32 %141
}

declare dso_local i32 @__isoc99_scanf(i8*, ...) #1

; Function Attrs: nounwind readonly
declare dso_local i64 @strlen(i8*) #2

declare dso_local i32 @printf(i8*, ...) #1


!llvm.module.flags = !{!0}
!llvm.ident = !{!1}

!0 = !{i32 1, !"wchar_size", i32 4}
!1 = !{!"clang version 10.0.0-4ubuntu1 "}
